; Function Attrs: mustprogress nofree norecurse nosync nounwind willreturn memory(argmem: read) uwtable
define dso_local { <2 x float>, <2 x float> } @_ZNK23btDiscreteDynamicsWorld10getGravityEv(ptr nocapture noundef nonnull readonly align 8 dereferenceable(508) %this) unnamed_addr #10 align 2 {
entry:
  %m_gravity = getelementptr inbounds i8, ptr %this, i64 400
  %retval.sroa.0.0.copyload = load <2 x float>, ptr %m_gravity, align 8
  %retval.sroa.2.0.m_gravity.sroa_idx = getelementptr inbounds i8, ptr %this, i64 408
  %retval.sroa.2.0.copyload = load <2 x float>, ptr %retval.sroa.2.0.m_gravity.sroa_idx, align 8
  %.fca.0.insert = insertvalue { <2 x float>, <2 x float> } poison, <2 x float> %retval.sroa.0.0.copyload, 0
  %.fca.1.insert = insertvalue { <2 x float>, <2 x float> } %.fca.0.insert, <2 x float> %retval.sroa.2.0.copyload, 1
  ret { <2 x float>, <2 x float> } %.fca.1.insert
}